; ModuleID = '42/472.c'
source_filename = "42/472.c"
target datalayout = "e-m:e-p270:32:32-p271:32:32-p272:64:64-i64:64-f80:128-n8:16:32:64-S128"
target triple = "x86_64-pc-linux-gnu"

@.str = private unnamed_addr constant [3 x i8] c"%d\00", align 1
@.str.1 = private unnamed_addr constant [4 x i8] c" %d\00", align 1

; Function Attrs: noinline nounwind uwtable
define dso_local i32 @main() #0 {
  %1 = alloca i32, align 4
  %2 = alloca i32, align 4
  %3 = alloca [100001 x i32], align 16
  %4 = alloca i32, align 4
  %5 = alloca i32, align 4
  %6 = alloca i32, align 4
  %7 = alloca i32, align 4
  store i32 0, i32* %1, align 4
  store i32 0, i32* %7, align 4
  %8 = call i32 (i8*, ...) @__isoc99_scanf(i8* getelementptr inbounds ([3 x i8], [3 x i8]* @.str, i64 0, i64 0), i32* %2)
  store i32 0, i32* %5, align 4
  br label %9

9:                                                ; preds = %18, %0
  %10 = load i32, i32* %5, align 4
  %11 = load i32, i32* %2, align 4
  %12 = icmp slt i32 %10, %11
  br i1 %12, label %13, label %21

13:                                               ; preds = %9
  %14 = load i32, i32* %5, align 4
  %15 = sext i32 %14 to i64
  %16 = getelementptr inbounds [100001 x i32], [100001 x i32]* %3, i64 0, i64 %15
  %17 = call i32 (i8*, ...) @__isoc99_scanf(i8* getelementptr inbounds ([3 x i8], [3 x i8]* @.str, i64 0, i64 0), i32* %16)
  br label %18

18:                                               ; preds = %13
  %19 = load i32, i32* %5, align 4
  %20 = add nsw i32 %19, 1
  store i32 %20, i32* %5, align 4
  br label %9

21:                                               ; preds = %9
  %22 = call i32 (i8*, ...) @__isoc99_scanf(i8* getelementptr inbounds ([3 x i8], [3 x i8]* @.str, i64 0, i64 0), i32* %4)
  store i32 0, i32* %5, align 4
  br label %23

23:                                               ; preds = %66, %21
  %24 = load i32, i32* %5, align 4
  %25 = load i32, i32* %2, align 4
  %26 = icmp slt i32 %24, %25
  br i1 %26, label %27, label %69

27:                                               ; preds = %23
  %28 = load i32, i32* %5, align 4
  %29 = sext i32 %28 to i64
  %30 = getelementptr inbounds [100001 x i32], [100001 x i32]* %3, i64 0, i64 %29
  %31 = load i32, i32* %30, align 4
  %32 = load i32, i32* %4, align 4
  %33 = icmp eq i32 %31, %32
  br i1 %33, label %34, label %55

34:                                               ; preds = %27
  %35 = load i32, i32* %7, align 4
  %36 = add nsw i32 %35, 1
  store i32 %36, i32* %7, align 4
  %37 = load i32, i32* %5, align 4
  store i32 %37, i32* %6, align 4
  br label %38

38:                                               ; preds = %51, %34
  %39 = load i32, i32* %6, align 4
  %40 = load i32, i32* %2, align 4
  %41 = icmp slt i32 %39, %40
  br i1 %41, label %42, label %54

42:                                               ; preds = %38
  %43 = load i32, i32* %6, align 4
  %44 = add nsw i32 %43, 1
  %45 = sext i32 %44 to i64
  %46 = getelementptr inbounds [100001 x i32], [100001 x i32]* %3, i64 0, i64 %45
  %47 = load i32, i32* %46, align 4
  %48 = load i32, i32* %6, align 4
  %49 = sext i32 %48 to i64
  %50 = getelementptr inbounds [100001 x i32], [100001 x i32]* %3, i64 0, i64 %49
  store i32 %47, i32* %50, align 4
  br label %51

51:                                               ; preds = %42
  %52 = load i32, i32* %6, align 4
  %53 = add nsw i32 %52, 1
  store i32 %53, i32* %6, align 4
  br label %38

54:                                               ; preds = %38
  br label %55

55:                                               ; preds = %54, %27
  %56 = load i32, i32* %5, align 4
  %57 = sext i32 %56 to i64
  %58 = getelementptr inbounds [100001 x i32], [100001 x i32]* %3, i64 0, i64 %57
  %59 = load i32, i32* %58, align 4
  %60 = load i32, i32* %4, align 4
  %61 = icmp eq i32 %59, %60
  br i1 %61, label %62, label %65

62:                                               ; preds = %55
  %63 = load i32, i32* %5, align 4
  %64 = add nsw i32 %63, -1
  store i32 %64, i32* %5, align 4
  br label %65

65:                                               ; preds = %62, %55
  br label %66

66:                                               ; preds = %65
  %67 = load i32, i32* %5, align 4
  %68 = add nsw i32 %67, 1
  store i32 %68, i32* %5, align 4
  br label %23

69:                                               ; preds = %23
  %70 = getelementptr inbounds [100001 x i32], [100001 x i32]* %3, i64 0, i64 0
  %71 = load i32, i32* %70, align 16
  %72 = call i32 (i8*, ...) @printf(i8* getelementptr inbounds ([3 x i8], [3 x i8]* @.str, i64 0, i64 0), i32 %71)
  store i32 1, i32* %5, align 4
  br label %73

73:                                               ; preds = %85, %69
  %74 = load i32, i32* %5, align 4
  %75 = load i32, i32* %2, align 4
  %76 = load i32, i32* %7, align 4
  %77 = sub nsw i32 %75, %76
  %78 = icmp slt i32 %74, %77
  br i1 %78, label %79, label %88

79:                                               ; preds = %73
  %80 = load i32, i32* %5, align 4
  %81 = sext i32 %80 to i64
  %82 = getelementptr inbounds [100001 x i32], [100001 x i32]* %3, i64 0, i64 %81
  %83 = load i32, i32* %82, align 4
  %84 = call i32 (i8*, ...) @printf(i8* getelementptr inbounds ([4 x i8], [4 x i8]* @.str.1, i64 0, i64 0), i32 %83)
  br label %85

85:                                               ; preds = %79
  %86 = load i32, i32* %5, align 4
  %87 = add nsw i32 %86, 1
  store i32 %87, i32* %5, align 4
  br label %73

88:                                               ; preds = %73
  %89 = load i32, i32* %1, align 4
  ret i32 %89
}

declare dso_local i32 @__isoc99_scanf(i8*, ...) #1

declare dso_local i32 @printf(i8*, ...) #1


!llvm.module.flags = !{!0}
!llvm.ident = !{!1}

!0 = !{i32 1, !"wchar_size", i32 4}
!1 = !{!"clang version 10.0.0-4ubuntu1 "}
